; Function Attrs: null_pointer_is_valid sspstrong uwtable
define internal fastcc void @get_QDS(ptr noundef %0, ptr noundef captures(none) %1, ptr noundef %2) unnamed_addr #0 {
  %4 = load i32, ptr @hf_qds, align 4
  %5 = load i8, ptr %1, align 1
  %6 = zext i8 %5 to i32
  %7 = tail call ptr @proto_tree_add_item(ptr noundef %2, i32 noundef %4, ptr noundef %0, i32 noundef %6, i32 noundef 1, i32 noundef -2147483648)
  %8 = load i32, ptr @ett_qds, align 4
  %9 = tail call ptr @proto_item_add_subtree(ptr noundef %7, i32 noundef %8)
  %10 = load i32, ptr @hf_qds_ov, align 4
  %11 = load i8, ptr %1, align 1
  %12 = zext i8 %11 to i32
  %13 = tail call ptr @proto_tree_add_item(ptr noundef %9, i32 noundef %10, ptr noundef %0, i32 noundef %12, i32 noundef 1, i32 noundef -2147483648)
  %14 = load i32, ptr @hf_qds_bl, align 4
  %15 = load i8, ptr %1, align 1
  %16 = zext i8 %15 to i32
  %17 = tail call ptr @proto_tree_add_item(ptr noundef %9, i32 noundef %14, ptr noundef %0, i32 noundef %16, i32 noundef 1, i32 noundef -2147483648)
  %18 = load i32, ptr @hf_qds_sb, align 4
  %19 = load i8, ptr %1, align 1
  %20 = zext i8 %19 to i32
  %21 = tail call ptr @proto_tree_add_item(ptr noundef %9, i32 noundef %18, ptr noundef %0, i32 noundef %20, i32 noundef 1, i32 noundef -2147483648)
  %22 = load i32, ptr @hf_qds_nt, align 4
  %23 = load i8, ptr %1, align 1
  %24 = zext i8 %23 to i32
  %25 = tail call ptr @proto_tree_add_item(ptr noundef %9, i32 noundef %22, ptr noundef %0, i32 noundef %24, i32 noundef 1, i32 noundef -2147483648)
  %26 = load i32, ptr @hf_qds_iv, align 4
  %27 = load i8, ptr %1, align 1
  %28 = zext i8 %27 to i32
  %29 = tail call ptr @proto_tree_add_item(ptr noundef %9, i32 noundef %26, ptr noundef %0, i32 noundef %28, i32 noundef 1, i32 noundef -2147483648)
  %30 = load i8, ptr %1, align 1
  %31 = add i8 %30, 1
  store i8 %31, ptr %1, align 1
  ret void
}